target datalayout = "e-m:e-p270:32:32-p271:32:32-p272:64:64-i64:64-i128:128-f80:128-n8:16:32:64-S128"
target triple = "x86_64-pc-linux-gnu"

%struct.dynbuf = type { ptr, i64, i64, i64 }

@.str.1 = private unnamed_addr constant [2 x i8] c"/\00", align 1
@.str.21 = private unnamed_addr constant [3 x i8] c"//\00", align 1

; Function Attrs: nounwind uwtable
define internal i32 @concat_url(ptr noundef %0, ptr noundef %1, ptr noundef %2) #0 {
  %4 = alloca i32, align 4
  %5 = alloca ptr, align 8
  %6 = alloca ptr, align 8
  %7 = alloca ptr, align 8
  %8 = alloca %struct.dynbuf, align 8
  %9 = alloca ptr, align 8
  %10 = alloca ptr, align 8
  %11 = alloca i8, align 1
  %12 = alloca ptr, align 8
  %13 = alloca i32, align 4
  %14 = alloca i32, align 4
  %15 = alloca i32, align 4
  %16 = alloca ptr, align 8
  store ptr %0, ptr %5, align 8
  store ptr %1, ptr %6, align 8
  store ptr %2, ptr %7, align 8
  store i8 0, ptr %11, align 1
  %17 = load ptr, ptr %6, align 8
  store ptr %17, ptr %12, align 8
  store i32 0, ptr %13, align 4
  %18 = load ptr, ptr %7, align 8
  store ptr null, ptr %18, align 8
  %19 = load ptr, ptr %5, align 8
  %20 = call ptr @strstr(ptr noundef %19, ptr noundef @.str.21) #7
  store ptr %20, ptr %9, align 8
  %21 = load ptr, ptr %9, align 8
  %22 = icmp ne ptr %21, null
  br i1 %22, label %25, label %23

23:                                               ; preds = %3
  %24 = load ptr, ptr %5, align 8
  store ptr %24, ptr %9, align 8
  br label %28

25:                                               ; preds = %3
  %26 = load ptr, ptr %9, align 8
  %27 = getelementptr inbounds i8, ptr %26, i64 2
  store ptr %27, ptr %9, align 8
  br label %28

28:                                               ; preds = %25, %23
  %29 = load ptr, ptr %6, align 8
  %30 = getelementptr inbounds i8, ptr %29, i64 0
  %31 = load i8, ptr %30, align 1
  %32 = sext i8 %31 to i32
  %33 = icmp ne i32 47, %32
  br i1 %33, label %34, label %125

34:                                               ; preds = %28
  store i32 0, ptr %15, align 4
  %35 = load ptr, ptr %9, align 8
  %36 = call ptr @strchr(ptr noundef %35, i32 noundef 63) #7
  store ptr %36, ptr %10, align 8
  %37 = load ptr, ptr %10, align 8
  %38 = icmp ne ptr %37, null
  br i1 %38, label %39, label %41

39:                                               ; preds = %34
  %40 = load ptr, ptr %10, align 8
  store i8 0, ptr %40, align 1
  br label %41

41:                                               ; preds = %39, %34
  %42 = load ptr, ptr %12, align 8
  %43 = getelementptr inbounds i8, ptr %42, i64 0
  %44 = load i8, ptr %43, align 1
  %45 = sext i8 %44 to i32
  %46 = icmp ne i32 %45, 63
  br i1 %46, label %47, label %55

47:                                               ; preds = %41
  %48 = load ptr, ptr %9, align 8
  %49 = call ptr @strrchr(ptr noundef %48, i32 noundef 47) #7
  store ptr %49, ptr %10, align 8
  %50 = load ptr, ptr %10, align 8
  %51 = icmp ne ptr %50, null
  br i1 %51, label %52, label %54

52:                                               ; preds = %47
  %53 = load ptr, ptr %10, align 8
  store i8 0, ptr %53, align 1
  br label %54

54:                                               ; preds = %52, %47
  br label %55

55:                                               ; preds = %54, %41
  %56 = load ptr, ptr %9, align 8
  %57 = call ptr @strchr(ptr noundef %56, i32 noundef 47) #7
  store ptr %57, ptr %10, align 8
  %58 = load ptr, ptr %10, align 8
  %59 = icmp ne ptr %58, null
  br i1 %59, label %60, label %63

60:                                               ; preds = %55
  %61 = load ptr, ptr %10, align 8
  %62 = getelementptr inbounds i8, ptr %61, i64 1
  store ptr %62, ptr %9, align 8
  br label %64

63:                                               ; preds = %55
  store ptr null, ptr %9, align 8
  br label %64

64:                                               ; preds = %63, %60
  %65 = load ptr, ptr %12, align 8
  %66 = getelementptr inbounds i8, ptr %65, i64 0
  %67 = load i8, ptr %66, align 1
  %68 = sext i8 %67 to i32
  %69 = icmp eq i32 %68, 46
  br i1 %69, label %70, label %79

70:                                               ; preds = %64
  %71 = load ptr, ptr %12, align 8
  %72 = getelementptr inbounds i8, ptr %71, i64 1
  %73 = load i8, ptr %72, align 1
  %74 = sext i8 %73 to i32
  %75 = icmp eq i32 %74, 47
  br i1 %75, label %76, label %79

76:                                               ; preds = %70
  %77 = load ptr, ptr %12, align 8
  %78 = getelementptr inbounds i8, ptr %77, i64 2
  store ptr %78, ptr %12, align 8
  br label %79

79:                                               ; preds = %76, %70, %64
  br label %80

80:                                               ; preds = %100, %79
  %81 = load ptr, ptr %12, align 8
  %82 = getelementptr inbounds i8, ptr %81, i64 0
  %83 = load i8, ptr %82, align 1
  %84 = sext i8 %83 to i32
  %85 = icmp eq i32 %84, 46
  br i1 %85, label %86, label %98

86:                                               ; preds = %80
  %87 = load ptr, ptr %12, align 8
  %88 = getelementptr inbounds i8, ptr %87, i64 1
  %89 = load i8, ptr %88, align 1
  %90 = sext i8 %89 to i32
  %91 = icmp eq i32 %90, 46
  br i1 %91, label %92, label %98

92:                                               ; preds = %86
  %93 = load ptr, ptr %12, align 8
  %94 = getelementptr inbounds i8, ptr %93, i64 2
  %95 = load i8, ptr %94, align 1
  %96 = sext i8 %95 to i32
  %97 = icmp eq i32 %96, 47
  br label %98

98:                                               ; preds = %92, %86, %80
  %99 = phi i1 [ false, %86 ], [ false, %80 ], [ %97, %92 ]
  br i1 %99, label %100, label %105

100:                                              ; preds = %98
  %101 = load i32, ptr %15, align 4
  %102 = add nsw i32 %101, 1
  store i32 %102, ptr %15, align 4
  %103 = load ptr, ptr %12, align 8
  %104 = getelementptr inbounds i8, ptr %103, i64 3
  store ptr %104, ptr %12, align 8
  br label %80, !llvm.loop !13

105:                                              ; preds = %98
  %106 = load ptr, ptr %9, align 8
  %107 = icmp ne ptr %106, null
  br i1 %107, label %108, label %124

108:                                              ; preds = %105
  br label %109

109:                                              ; preds = %122, %108
  %110 = load i32, ptr %15, align 4
  %111 = add nsw i32 %110, -1
  store i32 %111, ptr %15, align 4
  %112 = icmp ne i32 %110, 0
  br i1 %112, label %113, label %123

113:                                              ; preds = %109
  %114 = load ptr, ptr %9, align 8
  %115 = call ptr @strrchr(ptr noundef %114, i32 noundef 47) #7
  store ptr %115, ptr %10, align 8
  %116 = load ptr, ptr %10, align 8
  %117 = icmp ne ptr %116, null
  br i1 %117, label %118, label %120

118:                                              ; preds = %113
  %119 = load ptr, ptr %10, align 8
  store i8 0, ptr %119, align 1
  br label %122

120:                                              ; preds = %113
  %121 = load ptr, ptr %9, align 8
  store i8 0, ptr %121, align 1
  br label %123

122:                                              ; preds = %118
  br label %109, !llvm.loop !14

123:                                              ; preds = %120, %109
  br label %124

124:                                              ; preds = %123, %105
  br label %163

125:                                              ; preds = %28
  %126 = load ptr, ptr %6, align 8
  %127 = getelementptr inbounds i8, ptr %126, i64 1
  %128 = load i8, ptr %127, align 1
  %129 = sext i8 %128 to i32
  %130 = icmp eq i32 %129, 47
  br i1 %130, label %131, label %135

131:                                              ; preds = %125
  %132 = load ptr, ptr %9, align 8
  store i8 0, ptr %132, align 1
  %133 = load ptr, ptr %6, align 8
  %134 = getelementptr inbounds i8, ptr %133, i64 2
  store ptr %134, ptr %12, align 8
  store i8 1, ptr %11, align 1
  br label %162

135:                                              ; preds = %125
  %136 = load ptr, ptr %9, align 8
  %137 = call ptr @strchr(ptr noundef %136, i32 noundef 47) #7
  store ptr %137, ptr %10, align 8
  %138 = load ptr, ptr %10, align 8
  %139 = icmp ne ptr %138, null
  br i1 %139, label %140, label %153

140:                                              ; preds = %135
  %141 = load ptr, ptr %9, align 8
  %142 = call ptr @strchr(ptr noundef %141, i32 noundef 63) #7
  store ptr %142, ptr %16, align 8
  %143 = load ptr, ptr %16, align 8
  %144 = icmp ne ptr %143, null
  br i1 %144, label %145, label %151

145:                                              ; preds = %140
  %146 = load ptr, ptr %16, align 8
  %147 = load ptr, ptr %10, align 8
  %148 = icmp ult ptr %146, %147
  br i1 %148, label %149, label %151

149:                                              ; preds = %145
  %150 = load ptr, ptr %16, align 8
  store ptr %150, ptr %10, align 8
  br label %151

151:                                              ; preds = %149, %145, %140
  %152 = load ptr, ptr %10, align 8
  store i8 0, ptr %152, align 1
  br label %161

153:                                              ; preds = %135
  %154 = load ptr, ptr %9, align 8
  %155 = call ptr @strchr(ptr noundef %154, i32 noundef 63) #7
  store ptr %155, ptr %10, align 8
  %156 = load ptr, ptr %10, align 8
  %157 = icmp ne ptr %156, null
  br i1 %157, label %158, label %160

158:                                              ; preds = %153
  %159 = load ptr, ptr %10, align 8
  store i8 0, ptr %159, align 1
  br label %160

160:                                              ; preds = %158, %153
  br label %161

161:                                              ; preds = %160, %151
  br label %162

162:                                              ; preds = %161, %131
  br label %163

163:                                              ; preds = %162, %124
  call void @Curl_dyn_init(ptr noundef %8, i64 noundef 8000000)
  %164 = load ptr, ptr %5, align 8
  %165 = call i32 @Curl_dyn_add(ptr noundef %8, ptr noundef %164)
  store i32 %165, ptr %13, align 4
  %166 = load i32, ptr %13, align 4
  %167 = icmp ne i32 %166, 0
  br i1 %167, label %168, label %170

168:                                              ; preds = %163
  %169 = load i32, ptr %13, align 4
  store i32 %169, ptr %4, align 4
  br label %214

170:                                              ; preds = %163
  %171 = load ptr, ptr %12, align 8
  %172 = getelementptr inbounds i8, ptr %171, i64 0
  %173 = load i8, ptr %172, align 1
  %174 = sext i8 %173 to i32
  %175 = icmp eq i32 47, %174
  br i1 %175, label %189, label %176

176:                                              ; preds = %170
  %177 = load ptr, ptr %9, align 8
  %178 = icmp ne ptr %177, null
  br i1 %178, label %179, label %183

179:                                              ; preds = %176
  %180 = load ptr, ptr %9, align 8
  %181 = load i8, ptr %180, align 1
  %182 = icmp ne i8 %181, 0
  br i1 %182, label %183, label %189

183:                                              ; preds = %179, %176
  %184 = load ptr, ptr %12, align 8
  %185 = getelementptr inbounds i8, ptr %184, i64 0
  %186 = load i8, ptr %185, align 1
  %187 = sext i8 %186 to i32
  %188 = icmp eq i32 63, %187
  br i1 %188, label %189, label %190

189:                                              ; preds = %183, %179, %170
  br label %197

190:                                              ; preds = %183
  %191 = call i32 @Curl_dyn_addn(ptr noundef %8, ptr noundef @.str.1, i64 noundef 1)
  store i32 %191, ptr %13, align 4
  %192 = load i32, ptr %13, align 4
  %193 = icmp ne i32 %192, 0
  br i1 %193, label %194, label %196

194:                                              ; preds = %190
  %195 = load i32, ptr %13, align 4
  store i32 %195, ptr %4, align 4
  br label %214

196:                                              ; preds = %190
  br label %197

197:                                              ; preds = %196, %189
  %198 = load ptr, ptr %12, align 8
  %199 = load ptr, ptr %12, align 8
  %200 = call i64 @strlen(ptr noundef %199) #7
  %201 = load i8, ptr %11, align 1
  %202 = trunc i8 %201 to i1
  %203 = xor i1 %202, true
  %204 = call i32 @urlencode_str(ptr noundef %8, ptr noundef %198, i64 noundef %200, i1 noundef zeroext %203, i1 noundef zeroext false)
  store i32 %204, ptr %14, align 4
  %205 = load i32, ptr %14, align 4
  %206 = icmp ne i32 %205, 0
  br i1 %206, label %207, label %211

207:                                              ; preds = %197
  %208 = load i32, ptr %14, align 4
  %209 = icmp eq i32 %208, 31
  %210 = select i1 %209, i32 100, i32 27
  store i32 %210, ptr %4, align 4
  br label %214

211:                                              ; preds = %197
  %212 = call ptr @Curl_dyn_ptr(ptr noundef %8)
  %213 = load ptr, ptr %7, align 8
  store ptr %212, ptr %213, align 8
  store i32 0, ptr %4, align 4
  br label %214

214:                                              ; preds = %211, %207, %194, %168
  %215 = load i32, ptr %4, align 4
  ret i32 %215
}