; Function Attrs: nounwind uwtable
define internal fastcc i32 @concat_url(ptr noundef %0, ptr noundef nonnull %1, ptr noundef nonnull writeonly captures(none) initializes((0, 8)) %2) unnamed_addr #0 {
  %4 = alloca %struct.dynbuf, align 8
  store ptr null, ptr %2, align 8
  %5 = tail call ptr @strstr(ptr noundef nonnull dereferenceable(1) %0, ptr noundef nonnull dereferenceable(1) @.str.21) #11
  %.not = icmp eq ptr %5, null
  %6 = getelementptr inbounds nuw i8, ptr %5, i64 2
  %.061 = select i1 %.not, ptr %0, ptr %6
  %7 = load i8, ptr %1, align 1
  %.not79 = icmp eq i8 %7, 47
  br i1 %.not79, label %42, label %8

8:                                                ; preds = %3
  %9 = tail call ptr @strchr(ptr noundef nonnull dereferenceable(1) %.061, i32 noundef 63) #11
  %.not83 = icmp eq ptr %9, null
  br i1 %.not83, label %11, label %10

10:                                               ; preds = %8
  store i8 0, ptr %9, align 1
  %.pr = load i8, ptr %1, align 1
  br label %11

11:                                               ; preds = %10, %8
  %12 = phi i8 [ %.pr, %10 ], [ %7, %8 ]
  %.not84 = icmp eq i8 %12, 63
  br i1 %.not84, label %16, label %13

13:                                               ; preds = %11
  %14 = tail call ptr @strrchr(ptr noundef nonnull dereferenceable(1) %.061, i32 noundef 47) #11
  %.not85 = icmp eq ptr %14, null
  br i1 %.not85, label %16, label %15

15:                                               ; preds = %13
  store i8 0, ptr %14, align 1
  %.pre = load i8, ptr %1, align 1
  br label %16

16:                                               ; preds = %13, %15, %11
  %17 = phi i8 [ %12, %13 ], [ %.pre, %15 ], [ 63, %11 ]
  %18 = tail call ptr @strchr(ptr noundef nonnull dereferenceable(1) %.061, i32 noundef 47) #11
  %.not86 = icmp eq ptr %18, null
  %19 = getelementptr inbounds nuw i8, ptr %18, i64 1
  %.162 = select i1 %.not86, ptr null, ptr %19
  %20 = icmp eq i8 %17, 46
  br i1 %20, label %21, label %.critedge

21:                                               ; preds = %16
  %22 = getelementptr inbounds nuw i8, ptr %1, i64 1
  %23 = load i8, ptr %22, align 1
  %24 = icmp eq i8 %23, 47
  %spec.select.idx = select i1 %24, i64 2, i64 0
  %spec.select = getelementptr inbounds nuw i8, ptr %1, i64 %spec.select.idx
  %.pre107 = load i8, ptr %spec.select, align 1
  %25 = icmp eq i8 %.pre107, 46
  br i1 %25, label %.lr.ph, label %.critedge

.lr.ph:                                           ; preds = %21, %33
  %.06097 = phi i32 [ %34, %33 ], [ 0, %21 ]
  %.16496 = phi ptr [ %35, %33 ], [ %spec.select, %21 ]
  %26 = getelementptr inbounds nuw i8, ptr %.16496, i64 1
  %27 = load i8, ptr %26, align 1
  %28 = icmp eq i8 %27, 46
  br i1 %28, label %29, label %.critedge

29:                                               ; preds = %.lr.ph
  %30 = getelementptr inbounds nuw i8, ptr %.16496, i64 2
  %31 = load i8, ptr %30, align 1
  %32 = icmp eq i8 %31, 47
  br i1 %32, label %33, label %.critedge

33:                                               ; preds = %29
  %34 = add nuw nsw i32 %.06097, 1
  %35 = getelementptr inbounds nuw i8, ptr %.16496, i64 3
  %36 = load i8, ptr %35, align 1
  %37 = icmp eq i8 %36, 46
  br i1 %37, label %.lr.ph, label %.critedge, !llvm.loop !15

.critedge:                                        ; preds = %29, %33, %.lr.ph, %16, %21
  %.164.lcssa = phi ptr [ %spec.select, %21 ], [ %1, %16 ], [ %.16496, %.lr.ph ], [ %35, %33 ], [ %.16496, %29 ]
  %.060.lcssa = phi i32 [ 0, %21 ], [ 0, %16 ], [ %.06097, %.lr.ph ], [ %34, %33 ], [ %.06097, %29 ]
  br i1 %.not86, label %.loopexit, label %.preheader

.preheader:                                       ; preds = %.critedge
  %.not88105 = icmp eq i32 %.060.lcssa, 0
  br i1 %.not88105, label %.loopexit, label %.lr.ph106

.lr.ph106:                                        ; preds = %.preheader, %39
  %.in = phi i32 [ %40, %39 ], [ %.060.lcssa, %.preheader ]
  %38 = tail call ptr @strrchr(ptr noundef nonnull dereferenceable(1) %.162, i32 noundef 47) #11
  %.not89 = icmp eq ptr %38, null
  br i1 %.not89, label %41, label %39

39:                                               ; preds = %.lr.ph106
  %40 = add nsw i32 %.in, -1
  store i8 0, ptr %38, align 1
  %.not88 = icmp eq i32 %40, 0
  br i1 %.not88, label %.loopexit, label %.lr.ph106, !llvm.loop !16

41:                                               ; preds = %.lr.ph106
  store i8 0, ptr %.162, align 1
  br label %.loopexit

42:                                               ; preds = %3
  %43 = getelementptr inbounds nuw i8, ptr %1, i64 1
  %44 = load i8, ptr %43, align 1
  %45 = icmp eq i8 %44, 47
  br i1 %45, label %46, label %48

46:                                               ; preds = %42
  store i8 0, ptr %.061, align 1
  %47 = getelementptr inbounds nuw i8, ptr %1, i64 2
  br label %.loopexit

48:                                               ; preds = %42
  %49 = tail call ptr @strchr(ptr noundef nonnull dereferenceable(1) %.061, i32 noundef 47) #11
  %.not80 = icmp eq ptr %49, null
  %50 = tail call ptr @strchr(ptr noundef nonnull dereferenceable(1) %.061, i32 noundef 63) #11
  br i1 %.not80, label %53, label %51

51:                                               ; preds = %48
  %.not82 = icmp ne ptr %50, null
  %52 = icmp ult ptr %50, %49
  %or.cond = and i1 %.not82, %52
  %.067 = select i1 %or.cond, ptr %50, ptr %49
  store i8 0, ptr %.067, align 1
  br label %.loopexit

53:                                               ; preds = %48
  %.not81 = icmp eq ptr %50, null
  br i1 %.not81, label %.loopexit, label %54

54:                                               ; preds = %53
  store i8 0, ptr %50, align 1
  br label %.loopexit

.loopexit:                                        ; preds = %39, %.preheader, %46, %53, %54, %51, %.critedge, %41
  %55 = phi i1 [ true, %41 ], [ true, %.critedge ], [ false, %46 ], [ true, %51 ], [ true, %54 ], [ true, %53 ], [ true, %.preheader ], [ true, %39 ]
  %.265 = phi ptr [ %.164.lcssa, %41 ], [ %.164.lcssa, %.critedge ], [ %47, %46 ], [ %1, %51 ], [ %1, %54 ], [ %1, %53 ], [ %.164.lcssa, %.preheader ], [ %.164.lcssa, %39 ]
  %.2 = phi ptr [ %19, %41 ], [ null, %.critedge ], [ %.061, %46 ], [ %.061, %51 ], [ %.061, %54 ], [ %.061, %53 ], [ %19, %.preheader ], [ %19, %39 ]
  call void @Curl_dyn_init(ptr noundef nonnull %4, i64 noundef 8000000) #10
  %56 = call i32 @Curl_dyn_add(ptr noundef nonnull %4, ptr noundef nonnull %0) #10
  %.not90 = icmp eq i32 %56, 0
  br i1 %.not90, label %57, label %75

57:                                               ; preds = %.loopexit
  %58 = load i8, ptr %.265, align 1
  %59 = icmp eq i8 %58, 47
  br i1 %59, label %67, label %60

60:                                               ; preds = %57
  %.not91 = icmp eq ptr %.2, null
  br i1 %.not91, label %64, label %61

61:                                               ; preds = %60
  %62 = load i8, ptr %.2, align 1
  %.not92 = icmp eq i8 %62, 0
  %63 = icmp eq i8 %58, 63
  %or.cond95 = or i1 %63, %.not92
  br i1 %or.cond95, label %67, label %65

64:                                               ; preds = %60
  %.old = icmp eq i8 %58, 63
  br i1 %.old, label %67, label %65

65:                                               ; preds = %61, %64
  %66 = call i32 @Curl_dyn_addn(ptr noundef nonnull %4, ptr noundef nonnull @.str.1, i64 noundef 1) #10
  %.not93 = icmp eq i32 %66, 0
  br i1 %.not93, label %67, label %75

67:                                               ; preds = %65, %57, %61, %64
  %68 = call i64 @strlen(ptr noundef nonnull dereferenceable(1) %.265) #11
  %69 = call fastcc i32 @urlencode_str(ptr noundef %4, ptr noundef nonnull %.265, i64 noundef %68, i1 noundef zeroext %55, i1 noundef zeroext false)
  %.not94 = icmp eq i32 %69, 0
  br i1 %.not94, label %73, label %70

70:                                               ; preds = %67
  %71 = icmp eq i32 %69, 31
  %72 = select i1 %71, i32 100, i32 27
  br label %75

73:                                               ; preds = %67
  %74 = call ptr @Curl_dyn_ptr(ptr noundef nonnull %4) #10
  store ptr %74, ptr %2, align 8
  br label %75

75:                                               ; preds = %65, %.loopexit, %73, %70
  %.0 = phi i32 [ %72, %70 ], [ 0, %73 ], [ %56, %.loopexit ], [ %66, %65 ]
  ret i32 %.0
}